; Function Attrs: nounwind uwtable
define noundef ptr @duckdb_je_pa_alloc(ptr noundef %0, ptr noundef %1, i64 noundef %2, i64 noundef %3, i1 noundef zeroext %4, i32 noundef %5, i1 noundef zeroext %6, i1 noundef zeroext %7, ptr noundef %8) local_unnamed_addr #0 {
tsdn_witness_tsdp_get.exit:
  br i1 %7, label %.thread, label %9

9:                                                ; preds = %tsdn_witness_tsdp_get.exit
  %10 = getelementptr inbounds nuw i8, ptr %1, i64 16
  %11 = load atomic i8, ptr %10 monotonic, align 1
  %12 = trunc i8 %11 to i1
  br i1 %12, label %13, label %.thread

13:                                               ; preds = %9
  %14 = getelementptr inbounds nuw i8, ptr %1, i64 62264
  %15 = load ptr, ptr %14, align 8, !tbaa !57
  %16 = tail call ptr %15(ptr noundef %0, ptr noundef nonnull %14, i64 noundef %2, i64 noundef %3, i1 noundef zeroext %6, i1 noundef zeroext false, i1 noundef zeroext %4, ptr noundef %8) #4
  %17 = icmp eq ptr %16, null
  br i1 %17, label %.thread, label %.thread39

.thread:                                          ; preds = %9, %tsdn_witness_tsdp_get.exit, %13
  %18 = getelementptr inbounds nuw i8, ptr %1, i64 24
  %19 = load ptr, ptr %18, align 8, !tbaa !57
  %20 = tail call ptr %19(ptr noundef %0, ptr noundef nonnull %18, i64 noundef %2, i64 noundef %3, i1 noundef zeroext %6, i1 noundef zeroext %7, i1 noundef zeroext %4, ptr noundef %8) #4
  %.not = icmp eq ptr %20, null
  br i1 %.not, label %36, label %.thread39

.thread39:                                        ; preds = %13, %.thread
  %.142 = phi ptr [ %20, %.thread ], [ %16, %13 ]
  %21 = lshr i64 %2, 12
  %22 = getelementptr inbounds nuw i8, ptr %1, i64 8
  %23 = atomicrmw add ptr %22, i64 %21 monotonic, align 8
  %24 = getelementptr inbounds nuw i8, ptr %1, i64 68272
  %25 = load ptr, ptr %24, align 8, !tbaa !53
  tail call void @duckdb_je_emap_remap(ptr noundef %0, ptr noundef %25, ptr noundef nonnull %.142, i32 noundef %5, i1 noundef zeroext %4) #4
  %26 = load i64, ptr %.142, align 8, !tbaa !58
  %27 = and i64 %26, -267390977
  %28 = zext i32 %5 to i64
  %29 = shl nuw nsw i64 %28, 20
  %30 = select i1 %4, i64 4096, i64 0
  %31 = or disjoint i64 %29, %30
  %32 = or i64 %31, %27
  store i64 %32, ptr %.142, align 8, !tbaa !58
  %33 = icmp ugt i64 %2, 8192
  %or.cond = and i1 %33, %4
  br i1 %or.cond, label %34, label %36

34:                                               ; preds = %.thread39
  %35 = load ptr, ptr %24, align 8, !tbaa !53
  tail call void @duckdb_je_emap_register_interior(ptr noundef %0, ptr noundef %35, ptr noundef nonnull %.142, i32 noundef %5) #4
  br label %36

36:                                               ; preds = %34, %.thread39, %.thread
  %.143 = phi ptr [ %.142, %34 ], [ %.142, %.thread39 ], [ null, %.thread ]
  ret ptr %.143
}